target datalayout = "e-m:e-p270:32:32-p271:32:32-p272:64:64-i64:64-i128:128-f80:128-n8:16:32:64-S128"
target triple = "x86_64-pc-linux-gnu"

%struct.Gia_Man_t_ = type { ptr, ptr, i32, i32, i32, i32, ptr, ptr, i32, i32, i32, ptr, ptr, %struct.Vec_Int_t_, %struct.Vec_Int_t_, i32, i32, i32, %struct.Vec_Int_t_, ptr, ptr, ptr, i32, i32, i32, i32, ptr, ptr, ptr, ptr, ptr, i32, i32, ptr, i32, ptr, ptr, ptr, ptr, ptr, ptr, ptr, ptr, ptr, ptr, ptr, ptr, ptr, ptr, ptr, ptr, ptr, ptr, %struct.Vec_Int_t_, %struct.Vec_Int_t_, ptr, ptr, ptr, ptr, ptr, ptr, ptr, ptr, ptr, ptr, ptr, ptr, ptr, ptr, ptr, ptr, ptr, ptr, ptr, ptr, ptr, i32, float, float, ptr, ptr, i32, ptr, ptr, ptr, ptr, ptr, ptr, ptr, ptr, ptr, ptr, ptr, ptr, ptr, ptr, ptr, i64, i64, ptr, ptr, i32, i32, i32, i32, i32, i32, i32, i32, i32, i32, i32, i32, ptr, ptr, ptr, ptr, ptr, ptr, ptr, ptr, i32, i32, i32, ptr, i32, i32, ptr, ptr, ptr, ptr, ptr, ptr, i32, i32, ptr, %struct.Vec_Int_t_, %struct.Vec_Int_t_, %struct.Vec_Int_t_, ptr, ptr, ptr, i32, i32, i32, i32, ptr, ptr, ptr, ptr, ptr }
%struct.Vec_Int_t_ = type { i32, i32, ptr }
%struct.Gia_Obj_t_ = type <{ i64, i32 }>

; Function Attrs: inlinehint nounwind uwtable
define internal ptr @Gia_ManObj(ptr noundef %0, i32 noundef %1) #2 {
  %3 = alloca ptr, align 8
  %4 = alloca i32, align 4
  store ptr %0, ptr %3, align 8, !tbaa !3
  store i32 %1, ptr %4, align 4, !tbaa !30
  %5 = load ptr, ptr %3, align 8, !tbaa !3
  %6 = getelementptr inbounds nuw %struct.Gia_Man_t_, ptr %5, i32 0, i32 6
  %7 = load ptr, ptr %6, align 8, !tbaa !35
  %8 = load i32, ptr %4, align 4, !tbaa !30
  %9 = sext i32 %8 to i64
  %10 = getelementptr inbounds %struct.Gia_Obj_t_, ptr %7, i64 %9
  ret ptr %10
}

; Function Attrs: inlinehint nounwind uwtable
define internal i32 @Abc_Lit2Var(i32 noundef %0) #2 {
  %2 = alloca i32, align 4
  store i32 %0, ptr %2, align 4, !tbaa !30
  %3 = load i32, ptr %2, align 4, !tbaa !30
  %4 = ashr i32 %3, 1
  ret i32 %4
}

; Function Attrs: inlinehint nounwind uwtable
define internal ptr @Gia_ObjFanin2(ptr noundef %0, ptr noundef %1) #2 {
  %3 = alloca ptr, align 8
  %4 = alloca ptr, align 8
  store ptr %0, ptr %3, align 8, !tbaa !3
  store ptr %1, ptr %4, align 8, !tbaa !32
  %5 = load ptr, ptr %3, align 8, !tbaa !3
  %6 = getelementptr inbounds nuw %struct.Gia_Man_t_, ptr %5, i32 0, i32 7
  %7 = load ptr, ptr %6, align 8, !tbaa !51
  %8 = icmp ne ptr %7, null
  br i1 %8, label %9, label %22

9:                                                ; preds = %2
  %10 = load ptr, ptr %3, align 8, !tbaa !3
  %11 = load ptr, ptr %3, align 8, !tbaa !3
  %12 = getelementptr inbounds nuw %struct.Gia_Man_t_, ptr %11, i32 0, i32 7
  %13 = load ptr, ptr %12, align 8, !tbaa !51
  %14 = load ptr, ptr %3, align 8, !tbaa !3
  %15 = load ptr, ptr %4, align 8, !tbaa !32
  %16 = call i32 @Gia_ObjId(ptr noundef %14, ptr noundef %15)
  %17 = sext i32 %16 to i64
  %18 = getelementptr inbounds i32, ptr %13, i64 %17
  %19 = load i32, ptr %18, align 4, !tbaa !30
  %20 = call i32 @Abc_Lit2Var(i32 noundef %19)
  %21 = call ptr @Gia_ManObj(ptr noundef %10, i32 noundef %20)
  br label %23

22:                                               ; preds = %2
  br label %23

23:                                               ; preds = %22, %9
  %24 = phi ptr [ %21, %9 ], [ null, %22 ]
  ret ptr %24
}

; Function Attrs: inlinehint nounwind uwtable
define internal ptr @Gia_ObjFanin1(ptr noundef %0) #2 {
  %2 = alloca ptr, align 8
  store ptr %0, ptr %2, align 8, !tbaa !32
  %3 = load ptr, ptr %2, align 8, !tbaa !32
  %4 = load ptr, ptr %2, align 8, !tbaa !32
  %5 = load i64, ptr %4, align 4
  %6 = lshr i64 %5, 32
  %7 = and i64 %6, 536870911
  %8 = trunc i64 %7 to i32
  %9 = sext i32 %8 to i64
  %10 = sub i64 0, %9
  %11 = getelementptr inbounds %struct.Gia_Obj_t_, ptr %3, i64 %10
  ret ptr %11
}

; Function Attrs: inlinehint nounwind uwtable
define internal ptr @Gia_ObjFanin0(ptr noundef %0) #2 {
  %2 = alloca ptr, align 8
  store ptr %0, ptr %2, align 8, !tbaa !32
  %3 = load ptr, ptr %2, align 8, !tbaa !32
  %4 = load ptr, ptr %2, align 8, !tbaa !32
  %5 = load i64, ptr %4, align 4
  %6 = and i64 %5, 536870911
  %7 = trunc i64 %6 to i32
  %8 = sext i32 %7 to i64
  %9 = sub i64 0, %8
  %10 = getelementptr inbounds %struct.Gia_Obj_t_, ptr %3, i64 %9
  ret ptr %10
}

; Function Attrs: inlinehint nounwind uwtable
define internal ptr @Gia_FanoutObj(ptr noundef %0, i32 noundef %1) #2 {
  %3 = alloca ptr, align 8
  %4 = alloca i32, align 4
  store ptr %0, ptr %3, align 8, !tbaa !36
  store i32 %1, ptr %4, align 4, !tbaa !30
  %5 = load ptr, ptr %3, align 8, !tbaa !36
  %6 = load i32, ptr %4, align 4, !tbaa !30
  %7 = mul nsw i32 5, %6
  %8 = sext i32 %7 to i64
  %9 = getelementptr inbounds i32, ptr %5, i64 %8
  ret ptr %9
}

; Function Attrs: inlinehint nounwind uwtable
define internal ptr @Gia_FanoutNext(ptr noundef %0, i32 noundef %1) #2 {
  %3 = alloca ptr, align 8
  %4 = alloca i32, align 4
  store ptr %0, ptr %3, align 8, !tbaa !36
  store i32 %1, ptr %4, align 4, !tbaa !30
  %5 = load ptr, ptr %3, align 8, !tbaa !36
  %6 = load i32, ptr %4, align 4, !tbaa !30
  %7 = ashr i32 %6, 1
  %8 = mul nsw i32 5, %7
  %9 = sext i32 %8 to i64
  %10 = getelementptr inbounds i32, ptr %5, i64 %9
  %11 = getelementptr inbounds i32, ptr %10, i64 3
  %12 = load i32, ptr %4, align 4, !tbaa !30
  %13 = and i32 %12, 1
  %14 = sext i32 %13 to i64
  %15 = getelementptr inbounds i32, ptr %11, i64 %14
  ret ptr %15
}

; Function Attrs: inlinehint nounwind uwtable
define internal ptr @Gia_FanoutPrev(ptr noundef %0, i32 noundef %1) #2 {
  %3 = alloca ptr, align 8
  %4 = alloca i32, align 4
  store ptr %0, ptr %3, align 8, !tbaa !36
  store i32 %1, ptr %4, align 4, !tbaa !30
  %5 = load ptr, ptr %3, align 8, !tbaa !36
  %6 = load i32, ptr %4, align 4, !tbaa !30
  %7 = ashr i32 %6, 1
  %8 = mul nsw i32 5, %7
  %9 = sext i32 %8 to i64
  %10 = getelementptr inbounds i32, ptr %5, i64 %9
  %11 = getelementptr inbounds i32, ptr %10, i64 1
  %12 = load i32, ptr %4, align 4, !tbaa !30
  %13 = and i32 %12, 1
  %14 = sext i32 %13 to i64
  %15 = getelementptr inbounds i32, ptr %11, i64 %14
  ret ptr %15
}

; Function Attrs: inlinehint nounwind uwtable
define internal i32 @Gia_FanoutCreate(i32 noundef %0, i32 noundef %1) #2 {
  %3 = alloca i32, align 4
  %4 = alloca i32, align 4
  store i32 %0, ptr %3, align 4, !tbaa !30
  store i32 %1, ptr %4, align 4, !tbaa !30
  %5 = load i32, ptr %3, align 4, !tbaa !30
  %6 = shl i32 %5, 1
  %7 = load i32, ptr %4, align 4, !tbaa !30
  %8 = or i32 %6, %7
  ret i32 %8
}

; Function Attrs: inlinehint nounwind uwtable
define internal i32 @Gia_ObjWhatFanin(ptr noundef %0, ptr noundef %1, ptr noundef %2) #2 {
  %4 = alloca i32, align 4
  %5 = alloca ptr, align 8
  %6 = alloca ptr, align 8
  %7 = alloca ptr, align 8
  store ptr %0, ptr %5, align 8, !tbaa !3
  store ptr %1, ptr %6, align 8, !tbaa !32
  store ptr %2, ptr %7, align 8, !tbaa !32
  %8 = load ptr, ptr %6, align 8, !tbaa !32
  %9 = call ptr @Gia_ObjFanin0(ptr noundef %8)
  %10 = load ptr, ptr %7, align 8, !tbaa !32
  %11 = icmp eq ptr %9, %10
  br i1 %11, label %12, label %13

12:                                               ; preds = %3
  store i32 0, ptr %4, align 4
  br label %27

13:                                               ; preds = %3
  %14 = load ptr, ptr %6, align 8, !tbaa !32
  %15 = call ptr @Gia_ObjFanin1(ptr noundef %14)
  %16 = load ptr, ptr %7, align 8, !tbaa !32
  %17 = icmp eq ptr %15, %16
  br i1 %17, label %18, label %19

18:                                               ; preds = %13
  store i32 1, ptr %4, align 4
  br label %27

19:                                               ; preds = %13
  %20 = load ptr, ptr %5, align 8, !tbaa !3
  %21 = load ptr, ptr %6, align 8, !tbaa !32
  %22 = call ptr @Gia_ObjFanin2(ptr noundef %20, ptr noundef %21)
  %23 = load ptr, ptr %7, align 8, !tbaa !32
  %24 = icmp eq ptr %22, %23
  br i1 %24, label %25, label %26

25:                                               ; preds = %19
  store i32 2, ptr %4, align 4
  br label %27

26:                                               ; preds = %19
  store i32 -1, ptr %4, align 4
  br label %27

27:                                               ; preds = %26, %25, %18, %12
  %28 = load i32, ptr %4, align 4
  ret i32 %28
}

; Function Attrs: inlinehint nounwind uwtable
define internal i32 @Abc_MaxInt(i32 noundef %0, i32 noundef %1) #2 {
  %3 = alloca i32, align 4
  %4 = alloca i32, align 4
  store i32 %0, ptr %3, align 4, !tbaa !30
  store i32 %1, ptr %4, align 4, !tbaa !30
  %5 = load i32, ptr %3, align 4, !tbaa !30
  %6 = load i32, ptr %4, align 4, !tbaa !30
  %7 = icmp sgt i32 %5, %6
  br i1 %7, label %8, label %10

8:                                                ; preds = %2
  %9 = load i32, ptr %3, align 4, !tbaa !30
  br label %12

10:                                               ; preds = %2
  %11 = load i32, ptr %4, align 4, !tbaa !30
  br label %12

12:                                               ; preds = %10, %8
  %13 = phi i32 [ %9, %8 ], [ %11, %10 ]
  ret i32 %13
}

; Function Attrs: inlinehint nounwind uwtable
define internal i32 @Gia_ObjId(ptr noundef %0, ptr noundef %1) #2 {
  %3 = alloca ptr, align 8
  %4 = alloca ptr, align 8
  store ptr %0, ptr %3, align 8, !tbaa !3
  store ptr %1, ptr %4, align 8, !tbaa !32
  %5 = load ptr, ptr %4, align 8, !tbaa !32
  %6 = load ptr, ptr %3, align 8, !tbaa !3
  %7 = getelementptr inbounds nuw %struct.Gia_Man_t_, ptr %6, i32 0, i32 6
  %8 = load ptr, ptr %7, align 8, !tbaa !35
  %9 = ptrtoint ptr %5 to i64
  %10 = ptrtoint ptr %8 to i64
  %11 = sub i64 %9, %10
  %12 = sdiv exact i64 %11, 12
  %13 = trunc i64 %12 to i32
  ret i32 %13
}

; Function Attrs: nounwind uwtable
define void @Gia_ObjAddFanout(ptr noundef %0, ptr noundef %1, ptr noundef %2) #0 {
  %4 = alloca ptr, align 8
  %5 = alloca ptr, align 8
  %6 = alloca ptr, align 8
  %7 = alloca i32, align 4
  %8 = alloca ptr, align 8
  %9 = alloca ptr, align 8
  %10 = alloca ptr, align 8
  %11 = alloca ptr, align 8
  %12 = alloca ptr, align 8
  %13 = alloca i32, align 4
  store ptr %0, ptr %4, align 8, !tbaa !3
  store ptr %1, ptr %5, align 8, !tbaa !32
  store ptr %2, ptr %6, align 8, !tbaa !32
  call void @llvm.lifetime.start.p0(i64 4, ptr %7) #8
  call void @llvm.lifetime.start.p0(i64 8, ptr %8) #8
  call void @llvm.lifetime.start.p0(i64 8, ptr %9) #8
  call void @llvm.lifetime.start.p0(i64 8, ptr %10) #8
  call void @llvm.lifetime.start.p0(i64 8, ptr %11) #8
  call void @llvm.lifetime.start.p0(i64 8, ptr %12) #8
  %14 = load ptr, ptr %4, align 8, !tbaa !3
  %15 = load ptr, ptr %5, align 8, !tbaa !32
  %16 = call i32 @Gia_ObjId(ptr noundef %14, ptr noundef %15)
  %17 = load ptr, ptr %4, align 8, !tbaa !3
  %18 = getelementptr inbounds nuw %struct.Gia_Man_t_, ptr %17, i32 0, i32 34
  %19 = load i32, ptr %18, align 8, !tbaa !8
  %20 = icmp sge i32 %16, %19
  br i1 %20, label %29, label %21

21:                                               ; preds = %3
  %22 = load ptr, ptr %4, align 8, !tbaa !3
  %23 = load ptr, ptr %6, align 8, !tbaa !32
  %24 = call i32 @Gia_ObjId(ptr noundef %22, ptr noundef %23)
  %25 = load ptr, ptr %4, align 8, !tbaa !3
  %26 = getelementptr inbounds nuw %struct.Gia_Man_t_, ptr %25, i32 0, i32 34
  %27 = load i32, ptr %26, align 8, !tbaa !8
  %28 = icmp sge i32 %24, %27
  br i1 %28, label %29, label %80

29:                                               ; preds = %21, %3
  call void @llvm.lifetime.start.p0(i64 4, ptr %13) #8
  %30 = load ptr, ptr %4, align 8, !tbaa !3
  %31 = load ptr, ptr %5, align 8, !tbaa !32
  %32 = call i32 @Gia_ObjId(ptr noundef %30, ptr noundef %31)
  %33 = load ptr, ptr %4, align 8, !tbaa !3
  %34 = load ptr, ptr %6, align 8, !tbaa !32
  %35 = call i32 @Gia_ObjId(ptr noundef %33, ptr noundef %34)
  %36 = call i32 @Abc_MaxInt(i32 noundef %32, i32 noundef %35)
  %37 = mul nsw i32 2, %36
  store i32 %37, ptr %13, align 4, !tbaa !30
  %38 = load ptr, ptr %4, align 8, !tbaa !3
  %39 = getelementptr inbounds nuw %struct.Gia_Man_t_, ptr %38, i32 0, i32 33
  %40 = load ptr, ptr %39, align 8, !tbaa !29
  %41 = icmp ne ptr %40, null
  br i1 %41, label %42, label %51

42:                                               ; preds = %29
  %43 = load ptr, ptr %4, align 8, !tbaa !3
  %44 = getelementptr inbounds nuw %struct.Gia_Man_t_, ptr %43, i32 0, i32 33
  %45 = load ptr, ptr %44, align 8, !tbaa !29
  %46 = load i32, ptr %13, align 4, !tbaa !30
  %47 = mul nsw i32 5, %46
  %48 = sext i32 %47 to i64
  %49 = mul i64 4, %48
  %50 = call ptr @realloc(ptr noundef %45, i64 noundef %49) #10
  br label %57

51:                                               ; preds = %29
  %52 = load i32, ptr %13, align 4, !tbaa !30
  %53 = mul nsw i32 5, %52
  %54 = sext i32 %53 to i64
  %55 = mul i64 4, %54
  %56 = call noalias ptr @malloc(i64 noundef %55) #9
  br label %57

57:                                               ; preds = %51, %42
  %58 = phi ptr [ %50, %42 ], [ %56, %51 ]
  %59 = load ptr, ptr %4, align 8, !tbaa !3
  %60 = getelementptr inbounds nuw %struct.Gia_Man_t_, ptr %59, i32 0, i32 33
  store ptr %58, ptr %60, align 8, !tbaa !29
  %61 = load ptr, ptr %4, align 8, !tbaa !3
  %62 = getelementptr inbounds nuw %struct.Gia_Man_t_, ptr %61, i32 0, i32 33
  %63 = load ptr, ptr %62, align 8, !tbaa !29
  %64 = load ptr, ptr %4, align 8, !tbaa !3
  %65 = getelementptr inbounds nuw %struct.Gia_Man_t_, ptr %64, i32 0, i32 34
  %66 = load i32, ptr %65, align 8, !tbaa !8
  %67 = mul nsw i32 5, %66
  %68 = sext i32 %67 to i64
  %69 = getelementptr inbounds i32, ptr %63, i64 %68
  %70 = load i32, ptr %13, align 4, !tbaa !30
  %71 = load ptr, ptr %4, align 8, !tbaa !3
  %72 = getelementptr inbounds nuw %struct.Gia_Man_t_, ptr %71, i32 0, i32 34
  %73 = load i32, ptr %72, align 8, !tbaa !8
  %74 = sub nsw i32 %70, %73
  %75 = sext i32 %74 to i64
  %76 = mul i64 20, %75
  call void @llvm.memset.p0.i64(ptr align 4 %69, i8 0, i64 %76, i1 false)
  %77 = load i32, ptr %13, align 4, !tbaa !30
  %78 = load ptr, ptr %4, align 8, !tbaa !3
  %79 = getelementptr inbounds nuw %struct.Gia_Man_t_, ptr %78, i32 0, i32 34
  store i32 %77, ptr %79, align 8, !tbaa !8
  call void @llvm.lifetime.end.p0(i64 4, ptr %13) #8
  br label %80

80:                                               ; preds = %57, %21
  %81 = load ptr, ptr %4, align 8, !tbaa !3
  %82 = load ptr, ptr %6, align 8, !tbaa !32
  %83 = call i32 @Gia_ObjId(ptr noundef %81, ptr noundef %82)
  %84 = load ptr, ptr %4, align 8, !tbaa !3
  %85 = load ptr, ptr %6, align 8, !tbaa !32
  %86 = load ptr, ptr %5, align 8, !tbaa !32
  %87 = call i32 @Gia_ObjWhatFanin(ptr noundef %84, ptr noundef %85, ptr noundef %86)
  %88 = call i32 @Gia_FanoutCreate(i32 noundef %83, i32 noundef %87)
  store i32 %88, ptr %7, align 4, !tbaa !30
  %89 = load ptr, ptr %4, align 8, !tbaa !3
  %90 = getelementptr inbounds nuw %struct.Gia_Man_t_, ptr %89, i32 0, i32 33
  %91 = load ptr, ptr %90, align 8, !tbaa !29
  %92 = load i32, ptr %7, align 4, !tbaa !30
  %93 = call ptr @Gia_FanoutPrev(ptr noundef %91, i32 noundef %92)
  store ptr %93, ptr %9, align 8, !tbaa !36
  %94 = load ptr, ptr %4, align 8, !tbaa !3
  %95 = getelementptr inbounds nuw %struct.Gia_Man_t_, ptr %94, i32 0, i32 33
  %96 = load ptr, ptr %95, align 8, !tbaa !29
  %97 = load i32, ptr %7, align 4, !tbaa !30
  %98 = call ptr @Gia_FanoutNext(ptr noundef %96, i32 noundef %97)
  store ptr %98, ptr %10, align 8, !tbaa !36
  %99 = load ptr, ptr %4, align 8, !tbaa !3
  %100 = getelementptr inbounds nuw %struct.Gia_Man_t_, ptr %99, i32 0, i32 33
  %101 = load ptr, ptr %100, align 8, !tbaa !29
  %102 = load ptr, ptr %4, align 8, !tbaa !3
  %103 = load ptr, ptr %5, align 8, !tbaa !32
  %104 = call i32 @Gia_ObjId(ptr noundef %102, ptr noundef %103)
  %105 = call ptr @Gia_FanoutObj(ptr noundef %101, i32 noundef %104)
  store ptr %105, ptr %8, align 8, !tbaa !36
  %106 = load ptr, ptr %8, align 8, !tbaa !36
  %107 = load i32, ptr %106, align 4, !tbaa !30
  %108 = icmp eq i32 %107, 0
  br i1 %108, label %109, label %116

109:                                              ; preds = %80
  %110 = load i32, ptr %7, align 4, !tbaa !30
  %111 = load ptr, ptr %8, align 8, !tbaa !36
  store i32 %110, ptr %111, align 4, !tbaa !30
  %112 = load i32, ptr %7, align 4, !tbaa !30
  %113 = load ptr, ptr %9, align 8, !tbaa !36
  store i32 %112, ptr %113, align 4, !tbaa !30
  %114 = load i32, ptr %7, align 4, !tbaa !30
  %115 = load ptr, ptr %10, align 8, !tbaa !36
  store i32 %114, ptr %115, align 4, !tbaa !30
  br label %139

116:                                              ; preds = %80
  %117 = load ptr, ptr %4, align 8, !tbaa !3
  %118 = getelementptr inbounds nuw %struct.Gia_Man_t_, ptr %117, i32 0, i32 33
  %119 = load ptr, ptr %118, align 8, !tbaa !29
  %120 = load ptr, ptr %8, align 8, !tbaa !36
  %121 = load i32, ptr %120, align 4, !tbaa !30
  %122 = call ptr @Gia_FanoutPrev(ptr noundef %119, i32 noundef %121)
  store ptr %122, ptr %11, align 8, !tbaa !36
  %123 = load ptr, ptr %4, align 8, !tbaa !3
  %124 = getelementptr inbounds nuw %struct.Gia_Man_t_, ptr %123, i32 0, i32 33
  %125 = load ptr, ptr %124, align 8, !tbaa !29
  %126 = load ptr, ptr %11, align 8, !tbaa !36
  %127 = load i32, ptr %126, align 4, !tbaa !30
  %128 = call ptr @Gia_FanoutNext(ptr noundef %125, i32 noundef %127)
  store ptr %128, ptr %12, align 8, !tbaa !36
  %129 = load ptr, ptr %11, align 8, !tbaa !36
  %130 = load i32, ptr %129, align 4, !tbaa !30
  %131 = load ptr, ptr %9, align 8, !tbaa !36
  store i32 %130, ptr %131, align 4, !tbaa !30
  %132 = load ptr, ptr %8, align 8, !tbaa !36
  %133 = load i32, ptr %132, align 4, !tbaa !30
  %134 = load ptr, ptr %10, align 8, !tbaa !36
  store i32 %133, ptr %134, align 4, !tbaa !30
  %135 = load i32, ptr %7, align 4, !tbaa !30
  %136 = load ptr, ptr %11, align 8, !tbaa !36
  store i32 %135, ptr %136, align 4, !tbaa !30
  %137 = load i32, ptr %7, align 4, !tbaa !30
  %138 = load ptr, ptr %12, align 8, !tbaa !36
  store i32 %137, ptr %138, align 4, !tbaa !30
  br label %139

139:                                              ; preds = %116, %109
  call void @llvm.lifetime.end.p0(i64 8, ptr %12) #8
  call void @llvm.lifetime.end.p0(i64 8, ptr %11) #8
  call void @llvm.lifetime.end.p0(i64 8, ptr %10) #8
  call void @llvm.lifetime.end.p0(i64 8, ptr %9) #8
  call void @llvm.lifetime.end.p0(i64 8, ptr %8) #8
  call void @llvm.lifetime.end.p0(i64 4, ptr %7) #8
  ret void
}