; Function Attrs: mustprogress nounwind willreturn uwtable
define void @Gia_ObjAddFanout(ptr noundef captures(none) %0, ptr noundef %1, ptr noundef %2) local_unnamed_addr #3 {
  %4 = getelementptr i8, ptr %0, i64 32
  %.val = load ptr, ptr %4, align 8, !tbaa !30
  %5 = ptrtoint ptr %1 to i64
  %6 = ptrtoint ptr %.val to i64
  %7 = sub i64 %5, %6
  %8 = sdiv exact i64 %7, 12
  %9 = trunc i64 %8 to i32
  %10 = getelementptr inbounds nuw i8, ptr %0, i64 240
  %11 = load i32, ptr %10, align 8, !tbaa !28
  %.not = icmp sgt i32 %11, %9
  %12 = ptrtoint ptr %2 to i64
  %13 = sub i64 %12, %6
  %14 = sdiv exact i64 %13, 12
  %15 = trunc i64 %14 to i32
  %.not52 = icmp sgt i32 %11, %15
  %or.cond = select i1 %.not, i1 %.not52, i1 false
  br i1 %or.cond, label %36, label %._crit_edge

._crit_edge:                                      ; preds = %3
  %16 = tail call noundef i32 @llvm.smax.i32(i32 %9, i32 %15)
  %17 = shl nsw i32 %16, 1
  %18 = getelementptr inbounds nuw i8, ptr %0, i64 232
  %19 = load ptr, ptr %18, align 8, !tbaa !29
  %.not53 = icmp eq ptr %19, null
  %20 = mul nsw i32 %16, 10
  %21 = sext i32 %20 to i64
  %22 = shl nsw i64 %21, 2
  br i1 %.not53, label %25, label %23

23:                                               ; preds = %._crit_edge
  %24 = tail call ptr @realloc(ptr noundef nonnull %19, i64 noundef %22) #14
  %.pre = load i32, ptr %10, align 8, !tbaa !28
  %.val57.pre.pre = load ptr, ptr %4, align 8, !tbaa !30
  %.pre69 = ptrtoint ptr %.val57.pre.pre to i64
  %.pre70 = sub i64 %12, %.pre69
  %.pre71 = sdiv exact i64 %.pre70, 12
  %.pre72 = trunc i64 %.pre71 to i32
  br label %27

25:                                               ; preds = %._crit_edge
  %26 = tail call noalias ptr @malloc(i64 noundef %22) #13
  br label %27

27:                                               ; preds = %25, %23
  %.pre67.pre-phi = phi i32 [ %15, %25 ], [ %.pre72, %23 ]
  %.pre65.pre-phi = phi i64 [ %14, %25 ], [ %.pre71, %23 ]
  %.pre61.pre-phi = phi i64 [ %6, %25 ], [ %.pre69, %23 ]
  %.val57.pre = phi ptr [ %.val, %25 ], [ %.val57.pre.pre, %23 ]
  %28 = phi i32 [ %11, %25 ], [ %.pre, %23 ]
  %29 = phi ptr [ %26, %25 ], [ %24, %23 ]
  store ptr %29, ptr %18, align 8, !tbaa !29
  %30 = mul nsw i32 %28, 5
  %31 = sext i32 %30 to i64
  %32 = getelementptr inbounds i32, ptr %29, i64 %31
  %33 = sub nsw i32 %17, %28
  %34 = sext i32 %33 to i64
  %35 = mul nsw i64 %34, 20
  tail call void @llvm.memset.p0.i64(ptr align 4 %32, i8 0, i64 %35, i1 false)
  store i32 %17, ptr %10, align 8, !tbaa !28
  br label %36

36:                                               ; preds = %3, %27
  %.pre-phi68 = phi i32 [ %.pre67.pre-phi, %27 ], [ %15, %3 ]
  %.pre-phi66 = phi i64 [ %.pre65.pre-phi, %27 ], [ %14, %3 ]
  %.pre-phi62 = phi i64 [ %.pre61.pre-phi, %27 ], [ %6, %3 ]
  %.val57 = phi ptr [ %.val57.pre, %27 ], [ %.val, %3 ]
  %37 = load i64, ptr %2, align 4
  %38 = and i64 %37, 536870911
  %39 = sub nsw i64 0, %38
  %40 = getelementptr inbounds %struct.Gia_Obj_t_, ptr %2, i64 %39
  %41 = icmp eq ptr %40, %1
  br i1 %41, label %Gia_ObjWhatFanin.exit, label %42

42:                                               ; preds = %36
  %43 = lshr i64 %37, 32
  %44 = and i64 %43, 536870911
  %45 = sub nsw i64 0, %44
  %46 = getelementptr inbounds %struct.Gia_Obj_t_, ptr %2, i64 %45
  %47 = icmp eq ptr %46, %1
  br i1 %47, label %Gia_ObjWhatFanin.exit, label %48

48:                                               ; preds = %42
  %49 = getelementptr inbounds nuw i8, ptr %0, i64 40
  %50 = load ptr, ptr %49, align 8, !tbaa !33
  %.not.i.i = icmp eq ptr %50, null
  br i1 %.not.i.i, label %Gia_ObjFanin2.exit.i, label %51

51:                                               ; preds = %48
  %sext.i.i = shl i64 %.pre-phi66, 32
  %52 = ashr exact i64 %sext.i.i, 30
  %53 = getelementptr inbounds i8, ptr %50, i64 %52
  %54 = load i32, ptr %53, align 4, !tbaa !34
  %55 = ashr i32 %54, 1
  %56 = sext i32 %55 to i64
  %57 = getelementptr inbounds %struct.Gia_Obj_t_, ptr %.val57, i64 %56
  br label %Gia_ObjFanin2.exit.i

Gia_ObjFanin2.exit.i:                             ; preds = %51, %48
  %58 = phi ptr [ %57, %51 ], [ null, %48 ]
  %59 = icmp eq ptr %58, %1
  %..i = select i1 %59, i32 2, i32 -1
  br label %Gia_ObjWhatFanin.exit

Gia_ObjWhatFanin.exit:                            ; preds = %36, %42, %Gia_ObjFanin2.exit.i
  %.0.i = phi i32 [ 0, %36 ], [ 1, %42 ], [ %..i, %Gia_ObjFanin2.exit.i ]
  %60 = shl i32 %.pre-phi68, 1
  %61 = or i32 %.0.i, %60
  %62 = getelementptr inbounds nuw i8, ptr %0, i64 232
  %63 = load ptr, ptr %62, align 8, !tbaa !29
  %64 = ashr i32 %61, 1
  %65 = mul nsw i32 %64, 5
  %66 = sext i32 %65 to i64
  %67 = getelementptr inbounds i32, ptr %63, i64 %66
  %68 = getelementptr inbounds nuw i8, ptr %67, i64 4
  %69 = and i32 %.0.i, 1
  %70 = zext nneg i32 %69 to i64
  %71 = getelementptr inbounds nuw i32, ptr %68, i64 %70
  %72 = getelementptr inbounds nuw i8, ptr %67, i64 12
  %73 = getelementptr inbounds nuw i32, ptr %72, i64 %70
  %74 = sub i64 %5, %.pre-phi62
  %75 = sdiv exact i64 %74, 12
  %sext = mul i64 %75, 21474836480
  %76 = ashr exact i64 %sext, 30
  %77 = getelementptr inbounds i8, ptr %63, i64 %76
  %78 = load i32, ptr %77, align 4, !tbaa !34
  %79 = icmp eq i32 %78, 0
  br i1 %79, label %80, label %81

80:                                               ; preds = %Gia_ObjWhatFanin.exit
  store i32 %61, ptr %77, align 4, !tbaa !34
  store i32 %61, ptr %71, align 4, !tbaa !34
  store i32 %61, ptr %73, align 4, !tbaa !34
  br label %100

81:                                               ; preds = %Gia_ObjWhatFanin.exit
  %82 = ashr i32 %78, 1
  %83 = mul nsw i32 %82, 5
  %84 = sext i32 %83 to i64
  %85 = getelementptr inbounds i32, ptr %63, i64 %84
  %86 = getelementptr inbounds nuw i8, ptr %85, i64 4
  %87 = and i32 %78, 1
  %88 = zext nneg i32 %87 to i64
  %89 = getelementptr inbounds nuw i32, ptr %86, i64 %88
  %90 = load i32, ptr %89, align 4, !tbaa !34
  %91 = ashr i32 %90, 1
  %92 = mul nsw i32 %91, 5
  %93 = sext i32 %92 to i64
  %94 = getelementptr inbounds i32, ptr %63, i64 %93
  %95 = getelementptr inbounds nuw i8, ptr %94, i64 12
  %96 = and i32 %90, 1
  %97 = zext nneg i32 %96 to i64
  %98 = getelementptr inbounds nuw i32, ptr %95, i64 %97
  store i32 %90, ptr %71, align 4, !tbaa !34
  %99 = load i32, ptr %77, align 4, !tbaa !34
  store i32 %99, ptr %73, align 4, !tbaa !34
  store i32 %61, ptr %89, align 4, !tbaa !34
  store i32 %61, ptr %98, align 4, !tbaa !34
  br label %100

100:                                              ; preds = %81, %80
  ret void
}